target datalayout = "e-m:e-p270:32:32-p271:32:32-p272:64:64-i64:64-i128:128-f80:128-n8:16:32:64-S128"
target triple = "x86_64-pc-linux-gnu"

%struct.jv = type { i8, i8, i16, i32, %union.anon }
%union.anon = type { ptr }
%struct.jq_state = type { ptr, ptr, ptr, ptr, ptr, %struct.jv, %struct.stack, i32, i32, i32, %struct.jv, %struct.jv, i32, i32, i32, i32, i32, %struct.jv, %struct.jv, %struct.jv, ptr, ptr, ptr, ptr, ptr, ptr }
%struct.stack = type { ptr, i32, i32 }

; Function Attrs: nounwind uwtable
define internal ptr @stack_block_next(ptr noundef %0, i32 noundef %1) #0 {
  %3 = alloca ptr, align 8
  %4 = alloca i32, align 4
  store ptr %0, ptr %3, align 8, !tbaa !22
  store i32 %1, ptr %4, align 4, !tbaa !21
  %5 = load ptr, ptr %3, align 8, !tbaa !22
  %6 = load i32, ptr %4, align 4, !tbaa !21
  %7 = call ptr @stack_block(ptr noundef %5, i32 noundef %6)
  %8 = getelementptr inbounds i32, ptr %7, i64 -1
  ret ptr %8
}

; Function Attrs: nounwind uwtable
define internal void @stack_reallocate(ptr noundef %0, i64 noundef %1) #0 {
  %3 = alloca ptr, align 8
  %4 = alloca i64, align 8
  %5 = alloca i32, align 4
  %6 = alloca ptr, align 8
  %7 = alloca i32, align 4
  %8 = alloca ptr, align 8
  store ptr %0, ptr %3, align 8, !tbaa !22
  store i64 %1, ptr %4, align 8, !tbaa !24
  call void @llvm.lifetime.start.p0(i64 4, ptr %5) #7
  %9 = load ptr, ptr %3, align 8, !tbaa !22
  %10 = getelementptr inbounds nuw %struct.stack, ptr %9, i32 0, i32 1
  %11 = load i32, ptr %10, align 8, !tbaa !27
  %12 = sub nsw i32 0, %11
  %13 = add nsw i32 %12, 8
  store i32 %13, ptr %5, align 4, !tbaa !21
  call void @llvm.lifetime.start.p0(i64 8, ptr %6) #7
  %14 = load ptr, ptr %3, align 8, !tbaa !22
  %15 = getelementptr inbounds nuw %struct.stack, ptr %14, i32 0, i32 0
  %16 = load ptr, ptr %15, align 8, !tbaa !28
  %17 = icmp ne ptr %16, null
  br i1 %17, label %18, label %26

18:                                               ; preds = %2
  %19 = load ptr, ptr %3, align 8, !tbaa !22
  %20 = getelementptr inbounds nuw %struct.stack, ptr %19, i32 0, i32 0
  %21 = load ptr, ptr %20, align 8, !tbaa !28
  %22 = load i32, ptr %5, align 4, !tbaa !21
  %23 = sext i32 %22 to i64
  %24 = sub i64 0, %23
  %25 = getelementptr inbounds i8, ptr %21, i64 %24
  br label %27

26:                                               ; preds = %2
  br label %27

27:                                               ; preds = %26, %18
  %28 = phi ptr [ %25, %18 ], [ null, %26 ]
  store ptr %28, ptr %6, align 8, !tbaa !100
  call void @llvm.lifetime.start.p0(i64 4, ptr %7) #7
  %29 = load i32, ptr %5, align 4, !tbaa !21
  %30 = sext i32 %29 to i64
  %31 = load i64, ptr %4, align 8, !tbaa !24
  %32 = add i64 %30, %31
  %33 = add i64 %32, 256
  %34 = mul i64 %33, 2
  %35 = call i64 @align_round_up(i64 noundef %34)
  %36 = trunc i64 %35 to i32
  store i32 %36, ptr %7, align 4, !tbaa !21
  call void @llvm.lifetime.start.p0(i64 8, ptr %8) #7
  %37 = load ptr, ptr %6, align 8, !tbaa !100
  %38 = load i32, ptr %7, align 4, !tbaa !21
  %39 = sext i32 %38 to i64
  %40 = call ptr @jv_mem_realloc(ptr noundef %37, i64 noundef %39)
  store ptr %40, ptr %8, align 8, !tbaa !100
  %41 = load ptr, ptr %8, align 8, !tbaa !100
  %42 = load i32, ptr %7, align 4, !tbaa !21
  %43 = load i32, ptr %5, align 4, !tbaa !21
  %44 = sub nsw i32 %42, %43
  %45 = sext i32 %44 to i64
  %46 = getelementptr inbounds i8, ptr %41, i64 %45
  %47 = load ptr, ptr %8, align 8, !tbaa !100
  %48 = load i32, ptr %5, align 4, !tbaa !21
  %49 = sext i32 %48 to i64
  call void @llvm.memmove.p0.p0.i64(ptr align 1 %46, ptr align 1 %47, i64 %49, i1 false)
  %50 = load ptr, ptr %8, align 8, !tbaa !100
  %51 = load i32, ptr %7, align 4, !tbaa !21
  %52 = sext i32 %51 to i64
  %53 = getelementptr inbounds i8, ptr %50, i64 %52
  %54 = load ptr, ptr %3, align 8, !tbaa !22
  %55 = getelementptr inbounds nuw %struct.stack, ptr %54, i32 0, i32 0
  store ptr %53, ptr %55, align 8, !tbaa !28
  %56 = load i32, ptr %7, align 4, !tbaa !21
  %57 = sub nsw i32 %56, 8
  %58 = sub nsw i32 0, %57
  %59 = load ptr, ptr %3, align 8, !tbaa !22
  %60 = getelementptr inbounds nuw %struct.stack, ptr %59, i32 0, i32 1
  store i32 %58, ptr %60, align 8, !tbaa !27
  call void @llvm.lifetime.end.p0(i64 8, ptr %8) #7
  call void @llvm.lifetime.end.p0(i64 4, ptr %7) #7
  call void @llvm.lifetime.end.p0(i64 8, ptr %6) #7
  call void @llvm.lifetime.end.p0(i64 4, ptr %5) #7
  ret void
}

; Function Attrs: nounwind uwtable
define internal i64 @align_round_up(i64 noundef %0) #0 {
  %2 = alloca i64, align 8
  store i64 %0, ptr %2, align 8, !tbaa !24
  %3 = load i64, ptr %2, align 8, !tbaa !24
  %4 = add i64 %3, 7
  %5 = udiv i64 %4, 8
  %6 = mul i64 %5, 8
  ret i64 %6
}

; Function Attrs: nounwind uwtable
define internal ptr @stack_block(ptr noundef %0, i32 noundef %1) #0 {
  %3 = alloca ptr, align 8
  %4 = alloca i32, align 4
  store ptr %0, ptr %3, align 8, !tbaa !22
  store i32 %1, ptr %4, align 4, !tbaa !21
  %5 = load ptr, ptr %3, align 8, !tbaa !22
  %6 = getelementptr inbounds nuw %struct.stack, ptr %5, i32 0, i32 0
  %7 = load ptr, ptr %6, align 8, !tbaa !28
  %8 = load i32, ptr %4, align 4, !tbaa !21
  %9 = sext i32 %8 to i64
  %10 = getelementptr inbounds i8, ptr %7, i64 %9
  ret ptr %10
}

; Function Attrs: nounwind uwtable
define internal i32 @stack_push_block(ptr noundef %0, i32 noundef %1, i64 noundef %2) #0 {
  %4 = alloca ptr, align 8
  %5 = alloca i32, align 4
  %6 = alloca i64, align 8
  %7 = alloca i32, align 4
  %8 = alloca i32, align 4
  store ptr %0, ptr %4, align 8, !tbaa !22
  store i32 %1, ptr %5, align 4, !tbaa !21
  store i64 %2, ptr %6, align 8, !tbaa !24
  call void @llvm.lifetime.start.p0(i64 4, ptr %7) #7
  %9 = load i64, ptr %6, align 8, !tbaa !24
  %10 = call i64 @align_round_up(i64 noundef %9)
  %11 = add i64 %10, 8
  %12 = trunc i64 %11 to i32
  store i32 %12, ptr %7, align 4, !tbaa !21
  call void @llvm.lifetime.start.p0(i64 4, ptr %8) #7
  %13 = load ptr, ptr %4, align 8, !tbaa !22
  %14 = getelementptr inbounds nuw %struct.stack, ptr %13, i32 0, i32 2
  %15 = load i32, ptr %14, align 4, !tbaa !26
  %16 = load i32, ptr %7, align 4, !tbaa !21
  %17 = sub nsw i32 %15, %16
  store i32 %17, ptr %8, align 4, !tbaa !21
  %18 = load i32, ptr %8, align 4, !tbaa !21
  %19 = load ptr, ptr %4, align 8, !tbaa !22
  %20 = getelementptr inbounds nuw %struct.stack, ptr %19, i32 0, i32 1
  %21 = load i32, ptr %20, align 8, !tbaa !27
  %22 = icmp slt i32 %18, %21
  br i1 %22, label %23, label %27

23:                                               ; preds = %3
  %24 = load ptr, ptr %4, align 8, !tbaa !22
  %25 = load i32, ptr %7, align 4, !tbaa !21
  %26 = sext i32 %25 to i64
  call void @stack_reallocate(ptr noundef %24, i64 noundef %26)
  br label %27

27:                                               ; preds = %23, %3
  %28 = load i32, ptr %8, align 4, !tbaa !21
  %29 = load ptr, ptr %4, align 8, !tbaa !22
  %30 = getelementptr inbounds nuw %struct.stack, ptr %29, i32 0, i32 2
  store i32 %28, ptr %30, align 4, !tbaa !26
  %31 = load i32, ptr %5, align 4, !tbaa !21
  %32 = load ptr, ptr %4, align 8, !tbaa !22
  %33 = load i32, ptr %8, align 4, !tbaa !21
  %34 = call ptr @stack_block_next(ptr noundef %32, i32 noundef %33)
  store i32 %31, ptr %34, align 4, !tbaa !21
  %35 = load i32, ptr %8, align 4, !tbaa !21
  call void @llvm.lifetime.end.p0(i64 4, ptr %8) #7
  call void @llvm.lifetime.end.p0(i64 4, ptr %7) #7
  ret i32 %35
}

; Function Attrs: nounwind uwtable
define dso_local void @stack_push(ptr noundef %0, i64 %1, ptr %2) #0 {
  %4 = alloca %struct.jv, align 8
  %5 = alloca ptr, align 8
  %6 = alloca ptr, align 8
  %7 = getelementptr inbounds nuw { i64, ptr }, ptr %4, i32 0, i32 0
  store i64 %1, ptr %7, align 8
  %8 = getelementptr inbounds nuw { i64, ptr }, ptr %4, i32 0, i32 1
  store ptr %2, ptr %8, align 8
  store ptr %0, ptr %5, align 8, !tbaa !4
  %9 = load ptr, ptr %5, align 8, !tbaa !4
  %10 = getelementptr inbounds nuw %struct.jq_state, ptr %9, i32 0, i32 6
  %11 = load ptr, ptr %5, align 8, !tbaa !4
  %12 = getelementptr inbounds nuw %struct.jq_state, ptr %11, i32 0, i32 8
  %13 = load i32, ptr %12, align 4, !tbaa !9
  %14 = call i32 @stack_push_block(ptr noundef %10, i32 noundef %13, i64 noundef 16)
  %15 = load ptr, ptr %5, align 8, !tbaa !4
  %16 = getelementptr inbounds nuw %struct.jq_state, ptr %15, i32 0, i32 8
  store i32 %14, ptr %16, align 4, !tbaa !9
  call void @llvm.lifetime.start.p0(i64 8, ptr %6) #7
  %17 = load ptr, ptr %5, align 8, !tbaa !4
  %18 = getelementptr inbounds nuw %struct.jq_state, ptr %17, i32 0, i32 6
  %19 = load ptr, ptr %5, align 8, !tbaa !4
  %20 = getelementptr inbounds nuw %struct.jq_state, ptr %19, i32 0, i32 8
  %21 = load i32, ptr %20, align 4, !tbaa !9
  %22 = call ptr @stack_block(ptr noundef %18, i32 noundef %21)
  store ptr %22, ptr %6, align 8, !tbaa !17
  %23 = load ptr, ptr %6, align 8, !tbaa !17
  call void @llvm.memcpy.p0.p0.i64(ptr align 8 %23, ptr align 8 %4, i64 16, i1 false), !tbaa.struct !18
  call void @llvm.lifetime.end.p0(i64 8, ptr %6) #7
  ret void
}