; Function Attrs: nounwind uwtable
define dso_local void @stack_push(ptr noundef captures(none) %0, i64 %1, ptr %2) local_unnamed_addr #0 {
  %4 = getelementptr inbounds nuw i8, ptr %0, i64 56
  %5 = getelementptr inbounds nuw i8, ptr %0, i64 76
  %6 = load i32, ptr %5, align 4, !tbaa !4
  %7 = getelementptr inbounds nuw i8, ptr %0, i64 68
  %8 = load i32, ptr %7, align 4, !tbaa !15
  %9 = add nsw i32 %8, -24
  %10 = getelementptr inbounds nuw i8, ptr %0, i64 64
  %11 = load i32, ptr %10, align 8, !tbaa !16
  %12 = icmp slt i32 %9, %11
  %.val.pre.i = load ptr, ptr %4, align 8, !tbaa !17
  br i1 %12, label %13, label %stack_push_block.exit

13:                                               ; preds = %3
  %14 = sub i32 8, %11
  %.not.i.i = icmp eq ptr %.val.pre.i, null
  %15 = sext i32 %14 to i64
  %16 = sub nsw i64 0, %15
  %17 = getelementptr inbounds i8, ptr %.val.pre.i, i64 %16
  %18 = select i1 %.not.i.i, ptr null, ptr %17
  %19 = shl nsw i64 %15, 1
  %20 = add nsw i64 %19, 567
  %21 = and i64 %20, -8
  %22 = trunc i64 %21 to i32
  %sext.i.i = shl i64 %21, 32
  %23 = ashr exact i64 %sext.i.i, 32
  %24 = tail call ptr @jv_mem_realloc(ptr noundef %18, i64 noundef %23) #13
  %25 = sub nsw i32 %22, %14
  %26 = sext i32 %25 to i64
  %27 = getelementptr inbounds i8, ptr %24, i64 %26
  tail call void @llvm.memmove.p0.p0.i64(ptr align 1 %27, ptr align 1 %24, i64 %15, i1 false)
  %28 = getelementptr inbounds i8, ptr %24, i64 %23
  store ptr %28, ptr %4, align 8, !tbaa !17
  %29 = sub nsw i32 8, %22
  store i32 %29, ptr %10, align 8, !tbaa !16
  br label %stack_push_block.exit

stack_push_block.exit:                            ; preds = %3, %13
  %.val = phi ptr [ %28, %13 ], [ %.val.pre.i, %3 ]
  store i32 %9, ptr %7, align 4, !tbaa !15
  %30 = sext i32 %9 to i64
  %31 = getelementptr inbounds i8, ptr %.val, i64 %30
  %32 = getelementptr inbounds i8, ptr %31, i64 -4
  store i32 %6, ptr %32, align 4, !tbaa !18
  store i32 %9, ptr %5, align 4, !tbaa !4
  store i64 %1, ptr %31, align 8
  %.sroa.2.0..0..sroa_idx = getelementptr inbounds nuw i8, ptr %31, i64 8
  store ptr %2, ptr %.sroa.2.0..0..sroa_idx, align 8, !tbaa !19
  ret void
}